target datalayout = "e-m:e-p270:32:32-p271:32:32-p272:64:64-i64:64-i128:128-f80:128-n8:16:32:64-S128"
target triple = "x86_64-pc-linux-gnu"

@.str = private unnamed_addr constant [3 x i8] c"h1\00", align 1
@.str.1 = private unnamed_addr constant [3 x i8] c"h2\00", align 1
@.str.2 = private unnamed_addr constant [3 x i8] c"h3\00", align 1
@.str.3 = private unnamed_addr constant [1 x i8] zeroinitializer, align 1

; Function Attrs: nounwind uwtable
define hidden ptr @Curl_alpnid2str(i32 noundef %0) #0 {
  %2 = alloca ptr, align 8
  %3 = alloca i32, align 4
  store i32 %0, ptr %3, align 4, !tbaa !3
  %4 = load i32, ptr %3, align 4, !tbaa !3
  switch i32 %4, label %8 [
    i32 8, label %5
    i32 16, label %6
    i32 32, label %7
  ]

5:                                                ; preds = %1
  store ptr @.str, ptr %2, align 8
  br label %9

6:                                                ; preds = %1
  store ptr @.str.1, ptr %2, align 8
  br label %9

7:                                                ; preds = %1
  store ptr @.str.2, ptr %2, align 8
  br label %9

8:                                                ; preds = %1
  store ptr @.str.3, ptr %2, align 8
  br label %9

9:                                                ; preds = %8, %7, %6, %5
  %10 = load ptr, ptr %2, align 8
  ret ptr %10
}