; Function Attrs: mustprogress nofree norecurse nosync nounwind willreturn memory(none) uwtable
define hidden noundef nonnull ptr @Curl_alpnid2str(i32 noundef %0) local_unnamed_addr #0 {
  switch i32 %0, label %4 [
    i32 8, label %5
    i32 16, label %2
    i32 32, label %3
  ]

2:                                                ; preds = %1
  br label %5

3:                                                ; preds = %1
  br label %5

4:                                                ; preds = %1
  br label %5

5:                                                ; preds = %1, %4, %3, %2
  %.0 = phi ptr [ @.str.3, %4 ], [ @.str.2, %3 ], [ @.str.1, %2 ], [ @.str, %1 ]
  ret ptr %.0
}